target datalayout = "e-m:e-p270:32:32-p271:32:32-p272:64:64-i64:64-i128:128-f80:128-n8:16:32:64-S128"
target triple = "x86_64-pc-linux-gnu"

%"class.llvm::Metadata" = type { i8, i8, i16, i32 }

; Function Attrs: mustprogress nounwind uwtable
define linkonce_odr hidden noundef i32 @_ZNK4llvm8Metadata13getMetadataIDEv(ptr noundef nonnull align 4 dereferenceable(8) %0) #0 comdat align 2 {
  %2 = alloca ptr, align 8
  store ptr %0, ptr %2, align 8
  %3 = load ptr, ptr %2, align 8
  %4 = getelementptr inbounds nuw %"class.llvm::Metadata", ptr %3, i32 0, i32 0
  %5 = load i8, ptr %4, align 4
  %6 = zext i8 %5 to i32
  ret i32 %6
}

; Function Attrs: mustprogress nounwind uwtable
define linkonce_odr hidden noundef ptr @_ZN4llvm6unwrapEP18LLVMOpaqueMetadata(ptr noundef %0) #0 comdat {
  %2 = alloca ptr, align 8
  store ptr %0, ptr %2, align 8
  %3 = load ptr, ptr %2, align 8
  ret ptr %3
}

; Function Attrs: mustprogress nounwind uwtable
define dso_local i32 @LLVMGetMetadataKind(ptr noundef %0) #0 {
  %2 = alloca i32, align 4
  %3 = alloca ptr, align 8
  store ptr %0, ptr %3, align 8
  %4 = load ptr, ptr %3, align 8
  %5 = call noundef ptr @_ZN4llvm6unwrapEP18LLVMOpaqueMetadata(ptr noundef %4)
  %6 = call noundef i32 @_ZNK4llvm8Metadata13getMetadataIDEv(ptr noundef nonnull align 4 dereferenceable(8) %5)
  switch i32 %6, label %43 [
    i32 0, label %7
    i32 1, label %8
    i32 2, label %9
    i32 3, label %10
    i32 4, label %11
    i32 5, label %12
    i32 6, label %13
    i32 7, label %14
    i32 8, label %15
    i32 9, label %16
    i32 10, label %17
    i32 11, label %18
    i32 12, label %19
    i32 13, label %20
    i32 14, label %21
    i32 15, label %22
    i32 16, label %23
    i32 17, label %24
    i32 18, label %25
    i32 19, label %26
    i32 20, label %27
    i32 21, label %28
    i32 22, label %29
    i32 23, label %30
    i32 24, label %31
    i32 25, label %32
    i32 26, label %33
    i32 27, label %34
    i32 28, label %35
    i32 29, label %36
    i32 30, label %37
    i32 31, label %38
    i32 32, label %39
    i32 33, label %40
    i32 34, label %41
    i32 35, label %42
  ]

7:                                                ; preds = %1
  store i32 0, ptr %2, align 4
  br label %44

8:                                                ; preds = %1
  store i32 1, ptr %2, align 4
  br label %44

9:                                                ; preds = %1
  store i32 2, ptr %2, align 4
  br label %44

10:                                               ; preds = %1
  store i32 3, ptr %2, align 4
  br label %44

11:                                               ; preds = %1
  store i32 34, ptr %2, align 4
  br label %44

12:                                               ; preds = %1
  store i32 4, ptr %2, align 4
  br label %44

13:                                               ; preds = %1
  store i32 5, ptr %2, align 4
  br label %44

14:                                               ; preds = %1
  store i32 6, ptr %2, align 4
  br label %44

15:                                               ; preds = %1
  store i32 7, ptr %2, align 4
  br label %44

16:                                               ; preds = %1
  store i32 8, ptr %2, align 4
  br label %44

17:                                               ; preds = %1
  store i32 9, ptr %2, align 4
  br label %44

18:                                               ; preds = %1
  store i32 10, ptr %2, align 4
  br label %44

19:                                               ; preds = %1
  store i32 11, ptr %2, align 4
  br label %44

20:                                               ; preds = %1
  store i32 12, ptr %2, align 4
  br label %44

21:                                               ; preds = %1
  store i32 13, ptr %2, align 4
  br label %44

22:                                               ; preds = %1
  store i32 14, ptr %2, align 4
  br label %44

23:                                               ; preds = %1
  store i32 15, ptr %2, align 4
  br label %44

24:                                               ; preds = %1
  store i32 16, ptr %2, align 4
  br label %44

25:                                               ; preds = %1
  store i32 17, ptr %2, align 4
  br label %44

26:                                               ; preds = %1
  store i32 18, ptr %2, align 4
  br label %44

27:                                               ; preds = %1
  store i32 19, ptr %2, align 4
  br label %44

28:                                               ; preds = %1
  store i32 20, ptr %2, align 4
  br label %44

29:                                               ; preds = %1
  store i32 21, ptr %2, align 4
  br label %44

30:                                               ; preds = %1
  store i32 22, ptr %2, align 4
  br label %44

31:                                               ; preds = %1
  store i32 23, ptr %2, align 4
  br label %44

32:                                               ; preds = %1
  store i32 24, ptr %2, align 4
  br label %44

33:                                               ; preds = %1
  store i32 25, ptr %2, align 4
  br label %44

34:                                               ; preds = %1
  store i32 26, ptr %2, align 4
  br label %44

35:                                               ; preds = %1
  store i32 27, ptr %2, align 4
  br label %44

36:                                               ; preds = %1
  store i32 28, ptr %2, align 4
  br label %44

37:                                               ; preds = %1
  store i32 35, ptr %2, align 4
  br label %44

38:                                               ; preds = %1
  store i32 29, ptr %2, align 4
  br label %44

39:                                               ; preds = %1
  store i32 30, ptr %2, align 4
  br label %44

40:                                               ; preds = %1
  store i32 31, ptr %2, align 4
  br label %44

41:                                               ; preds = %1
  store i32 32, ptr %2, align 4
  br label %44

42:                                               ; preds = %1
  store i32 33, ptr %2, align 4
  br label %44

43:                                               ; preds = %1
  store i32 8, ptr %2, align 4
  br label %44

44:                                               ; preds = %43, %42, %41, %40, %39, %38, %37, %36, %35, %34, %33, %32, %31, %30, %29, %28, %27, %26, %25, %24, %23, %22, %21, %20, %19, %18, %17, %16, %15, %14, %13, %12, %11, %10, %9, %8, %7
  %45 = load i32, ptr %2, align 4
  ret i32 %45
}