; Function Attrs: mustprogress nofree norecurse nosync nounwind willreturn memory(argmem: read) uwtable
define dso_local range(i32 0, 36) i32 @LLVMGetMetadataKind(ptr noundef readonly captures(none) %0) local_unnamed_addr #7 {
  %2 = load i8, ptr %0, align 4
  %3 = icmp ult i8 %2, 36
  br i1 %3, label %switch.lookup, label %5

switch.lookup:                                    ; preds = %1
  %4 = zext nneg i8 %2 to i64
  %switch.gep = getelementptr inbounds nuw [36 x i32], ptr @switch.table.LLVMGetMetadataKind, i64 0, i64 %4
  %switch.load = load i32, ptr %switch.gep, align 4
  br label %5

5:                                                ; preds = %1, %switch.lookup
  %.0 = phi i32 [ %switch.load, %switch.lookup ], [ 8, %1 ]
  ret i32 %.0
}